; Function Attrs: mustprogress uwtable
define void @_ZN6duckdb7roaring18RoaringScanPartialERNS_13ColumnSegmentERNS_15ColumnScanStateEmRNS_6VectorEm(ptr noundef nonnull readonly align 8 captures(none) dereferenceable(224) %0, ptr noundef nonnull align 8 dereferenceable(152) %1, i64 noundef %2, ptr noundef nonnull align 8 dereferenceable(104) %3, i64 noundef %4) #0 {
  %6 = getelementptr inbounds nuw i8, ptr %1, i64 32
  %7 = tail call noundef ptr @_ZNK6duckdb10unique_ptrINS_16SegmentScanStateESt14default_deleteIS1_ELb1EEptEv(ptr noundef nonnull align 8 dereferenceable(8) %6)
  %8 = getelementptr inbounds nuw i8, ptr %1, i64 16
  %9 = load i64, ptr %8, align 8, !tbaa !149
  %10 = load i64, ptr %0, align 8, !tbaa !180
  %11 = sub i64 %9, %10
  tail call void @_ZN6duckdb6Vector7FlattenEm(ptr noundef nonnull align 8 dereferenceable(104) %3, i64 noundef %2)
  %.not21.i = icmp eq i64 %2, 0
  br i1 %.not21.i, label %_ZN6duckdb7roaring16RoaringScanState11ScanPartialEmRNS_6VectorEmm.exit, label %.lr.ph.i

.lr.ph.i:                                         ; preds = %5, %.lr.ph.i
  %.023.i = phi i64 [ %26, %.lr.ph.i ], [ %2, %5 ]
  %.02022.i = phi i64 [ %27, %.lr.ph.i ], [ 0, %5 ]
  %12 = add i64 %.02022.i, %11
  %13 = lshr i64 %12, 11
  %14 = and i64 %12, 2047
  %15 = tail call noundef nonnull align 8 dereferenceable(32) ptr @_ZN6duckdb7roaring16RoaringScanState13LoadContainerEmm(ptr noundef nonnull align 8 dereferenceable(200) %7, i64 noundef %13, i64 noundef %14)
  %16 = getelementptr inbounds nuw i8, ptr %15, i64 16
  %17 = load i64, ptr %16, align 8, !tbaa !184
  %18 = getelementptr inbounds nuw i8, ptr %15, i64 24
  %19 = load i64, ptr %18, align 8, !tbaa !186
  %20 = sub i64 %17, %19
  %21 = tail call noundef i64 @llvm.umin.i64(i64 %.023.i, i64 %20)
  %22 = add i64 %.02022.i, %4
  %23 = load ptr, ptr %15, align 8, !tbaa !136
  %24 = getelementptr inbounds nuw i8, ptr %23, i64 16
  %25 = load ptr, ptr %24, align 8
  tail call void %25(ptr noundef nonnull align 8 dereferenceable(32) %15, ptr noundef nonnull align 8 dereferenceable(104) %3, i64 noundef %22, i64 noundef %21)
  %26 = sub i64 %.023.i, %21
  %27 = add i64 %21, %.02022.i
  %.not.i = icmp eq i64 %26, 0
  br i1 %.not.i, label %_ZN6duckdb7roaring16RoaringScanState11ScanPartialEmRNS_6VectorEmm.exit, label %.lr.ph.i, !llvm.loop !187

_ZN6duckdb7roaring16RoaringScanState11ScanPartialEmRNS_6VectorEmm.exit: ; preds = %.lr.ph.i, %5
  ret void
}